; Function Attrs: inlinehint mustprogress uwtable
define internal fastcc void @"_ZZN4Luau16ConstraintSolver24tryDispatchIterableTableEPKNS_4TypeERKNS_18IterableConstraintENS_7NotNullIKNS_10ConstraintEEEbENK3$_0clES3_"(ptr noundef nonnull readonly align 8 captures(none) dereferenceable(24) %0, ptr noundef %1) unnamed_addr #13 align 2 {
  %3 = getelementptr inbounds nuw i8, ptr %0, i64 8
  %4 = load ptr, ptr %3, align 8, !tbaa !803
  %5 = load ptr, ptr %0, align 8, !tbaa !973
  %6 = getelementptr inbounds nuw i8, ptr %5, i64 8
  %7 = load ptr, ptr %6, align 8, !tbaa !39
  %8 = getelementptr inbounds nuw i8, ptr %5, i64 16
  %9 = load ptr, ptr %8, align 8, !tbaa !39
  %.not8 = icmp eq ptr %7, %9
  br i1 %.not8, label %._crit_edge, label %.lr.ph

.lr.ph:                                           ; preds = %2
  %10 = getelementptr inbounds nuw i8, ptr %0, i64 16
  br label %11

._crit_edge:                                      ; preds = %11, %2
  ret void

11:                                               ; preds = %.lr.ph, %11
  %.sroa.05.09 = phi ptr [ %7, %.lr.ph ], [ %14, %11 ]
  %12 = load ptr, ptr %.sroa.05.09, align 8, !tbaa !37
  %13 = load ptr, ptr %10, align 8, !tbaa !974
  %.sroa.0.0.copyload = load ptr, ptr %13, align 8, !tbaa !81
  tail call void @_ZN4Luau16ConstraintSolver4bindENS_7NotNullIKNS_10ConstraintEEEPKNS_4TypeES7_(ptr noundef nonnull align 8 dereferenceable(1032) %4, ptr %.sroa.0.0.copyload, ptr noundef %12, ptr noundef %1)
  %14 = getelementptr inbounds nuw i8, ptr %.sroa.05.09, i64 8
  %.not = icmp eq ptr %14, %9
  br i1 %.not, label %._crit_edge, label %11
}